target datalayout = "e-m:e-p270:32:32-p271:32:32-p272:64:64-i64:64-i128:128-f80:128-n8:16:32:64-S128"
target triple = "x86_64-pc-linux-gnu"

%struct.H5D_chk_idx_info_t = type { ptr, ptr, ptr, ptr }
%struct.H5O_layout_chunk_t = type { i32, i8, i32, [33 x i32], i32, i32, i64, i64, [33 x i64], [33 x i64], [33 x i64], [33 x i64], %union.anon }
%union.anon = type { %struct.H5O_layout_chunk_earray_t }
%struct.H5O_layout_chunk_earray_t = type { %struct.anon.0, i32, [33 x i32], [33 x i64], [33 x i64] }
%struct.anon.0 = type { i8, i8, i8, i8, i8 }
%struct.H5O_storage_chunk_t = type { i32, i64, ptr, %union.anon.2 }
%union.anon.2 = type { %struct.H5O_storage_chunk_btree_t }
%struct.H5O_storage_chunk_btree_t = type { i64, ptr }
%struct.H5D_chunk_ud_t = type { %struct.H5D_chunk_common_ud_t, i32, %struct.H5F_block_t, i32, i8, i64 }
%struct.H5D_chunk_common_ud_t = type { ptr, ptr, ptr }
%struct.H5F_block_t = type { i64, i64 }

@H5D_init_g = external global i8, align 1
@H5_libterm_g = external global i8, align 1

; Function Attrs: nounwind uwtable
define internal i32 @H5D__none_idx_get_addr(ptr noundef %0, ptr noundef %1) #0 {
  %3 = alloca ptr, align 8
  %4 = alloca ptr, align 8
  store ptr %0, ptr %3, align 8, !tbaa !3
  store ptr %1, ptr %4, align 8, !tbaa !33
  %5 = load i8, ptr @H5D_init_g, align 1, !tbaa !10, !range !12, !noundef !13
  %6 = trunc i8 %5 to i1
  br i1 %6, label %11, label %7

7:                                                ; preds = %2
  %8 = load i8, ptr @H5_libterm_g, align 1, !tbaa !10, !range !12, !noundef !13
  %9 = trunc i8 %8 to i1
  %10 = xor i1 %9, true
  br label %11

11:                                               ; preds = %7, %2
  %12 = phi i1 [ true, %2 ], [ %10, %7 ]
  %13 = xor i1 %12, true
  %14 = xor i1 %13, true
  %15 = zext i1 %14 to i32
  %16 = sext i32 %15 to i64
  %17 = call i64 @llvm.expect.i64(i64 %16, i64 1)
  %18 = icmp ne i64 %17, 0
  br i1 %18, label %19, label %68

19:                                               ; preds = %11
  %20 = load ptr, ptr %3, align 8, !tbaa !3
  %21 = getelementptr inbounds nuw %struct.H5D_chk_idx_info_t, ptr %20, i32 0, i32 2
  %22 = load ptr, ptr %21, align 8, !tbaa !14
  %23 = getelementptr inbounds nuw %struct.H5O_layout_chunk_t, ptr %22, i32 0, i32 2
  %24 = load i32, ptr %23, align 8, !tbaa !35
  %25 = sub i32 %24, 1
  %26 = load ptr, ptr %3, align 8, !tbaa !3
  %27 = getelementptr inbounds nuw %struct.H5D_chk_idx_info_t, ptr %26, i32 0, i32 2
  %28 = load ptr, ptr %27, align 8, !tbaa !14
  %29 = getelementptr inbounds nuw %struct.H5O_layout_chunk_t, ptr %28, i32 0, i32 11
  %30 = getelementptr inbounds [33 x i64], ptr %29, i64 0, i64 0
  %31 = load ptr, ptr %4, align 8, !tbaa !33
  %32 = getelementptr inbounds nuw %struct.H5D_chunk_ud_t, ptr %31, i32 0, i32 0
  %33 = getelementptr inbounds nuw %struct.H5D_chunk_common_ud_t, ptr %32, i32 0, i32 2
  %34 = load ptr, ptr %33, align 8, !tbaa !36
  %35 = call i64 @H5VM_array_offset_pre(i32 noundef %25, ptr noundef %30, ptr noundef %34)
  %36 = load ptr, ptr %4, align 8, !tbaa !33
  %37 = getelementptr inbounds nuw %struct.H5D_chunk_ud_t, ptr %36, i32 0, i32 5
  store i64 %35, ptr %37, align 8, !tbaa !41
  %38 = load ptr, ptr %3, align 8, !tbaa !3
  %39 = getelementptr inbounds nuw %struct.H5D_chk_idx_info_t, ptr %38, i32 0, i32 3
  %40 = load ptr, ptr %39, align 8, !tbaa !26
  %41 = getelementptr inbounds nuw %struct.H5O_storage_chunk_t, ptr %40, i32 0, i32 1
  %42 = load i64, ptr %41, align 8, !tbaa !27
  %43 = load ptr, ptr %4, align 8, !tbaa !33
  %44 = getelementptr inbounds nuw %struct.H5D_chunk_ud_t, ptr %43, i32 0, i32 5
  %45 = load i64, ptr %44, align 8, !tbaa !41
  %46 = load ptr, ptr %3, align 8, !tbaa !3
  %47 = getelementptr inbounds nuw %struct.H5D_chk_idx_info_t, ptr %46, i32 0, i32 2
  %48 = load ptr, ptr %47, align 8, !tbaa !14
  %49 = getelementptr inbounds nuw %struct.H5O_layout_chunk_t, ptr %48, i32 0, i32 5
  %50 = load i32, ptr %49, align 4, !tbaa !23
  %51 = zext i32 %50 to i64
  %52 = mul i64 %45, %51
  %53 = add i64 %42, %52
  %54 = load ptr, ptr %4, align 8, !tbaa !33
  %55 = getelementptr inbounds nuw %struct.H5D_chunk_ud_t, ptr %54, i32 0, i32 2
  %56 = getelementptr inbounds nuw %struct.H5F_block_t, ptr %55, i32 0, i32 0
  store i64 %53, ptr %56, align 8, !tbaa !42
  %57 = load ptr, ptr %3, align 8, !tbaa !3
  %58 = getelementptr inbounds nuw %struct.H5D_chk_idx_info_t, ptr %57, i32 0, i32 2
  %59 = load ptr, ptr %58, align 8, !tbaa !14
  %60 = getelementptr inbounds nuw %struct.H5O_layout_chunk_t, ptr %59, i32 0, i32 5
  %61 = load i32, ptr %60, align 4, !tbaa !23
  %62 = zext i32 %61 to i64
  %63 = load ptr, ptr %4, align 8, !tbaa !33
  %64 = getelementptr inbounds nuw %struct.H5D_chunk_ud_t, ptr %63, i32 0, i32 2
  %65 = getelementptr inbounds nuw %struct.H5F_block_t, ptr %64, i32 0, i32 1
  store i64 %62, ptr %65, align 8, !tbaa !43
  %66 = load ptr, ptr %4, align 8, !tbaa !33
  %67 = getelementptr inbounds nuw %struct.H5D_chunk_ud_t, ptr %66, i32 0, i32 3
  store i32 0, ptr %67, align 8, !tbaa !44
  br label %68

68:                                               ; preds = %19, %11
  ret i32 0
}