; Function Attrs: nounwind uwtable
define internal noundef i32 @H5D__none_idx_get_addr(ptr noundef readonly captures(none) %0, ptr noundef captures(none) %1) #0 {
  %3 = load i8, ptr @H5D_init_g, align 1, !tbaa !3, !range !7, !noundef !8
  %4 = trunc nuw i8 %3 to i1
  %5 = load i8, ptr @H5_libterm_g, align 1, !range !7
  %6 = trunc nuw i8 %5 to i1
  %7 = xor i1 %6, true
  %8 = select i1 %4, i1 true, i1 %7
  br i1 %8, label %9, label %33, !prof !9

9:                                                ; preds = %2
  %10 = getelementptr inbounds nuw i8, ptr %0, i64 16
  %11 = load ptr, ptr %10, align 8, !tbaa !10
  %12 = getelementptr inbounds nuw i8, ptr %11, i64 8
  %13 = load i32, ptr %12, align 8, !tbaa !28
  %14 = add i32 %13, -1
  %15 = getelementptr inbounds nuw i8, ptr %11, i64 960
  %16 = getelementptr inbounds nuw i8, ptr %1, i64 16
  %17 = load ptr, ptr %16, align 8, !tbaa !29
  %18 = tail call i64 @H5VM_array_offset_pre(i32 noundef %14, ptr noundef nonnull %15, ptr noundef %17) #9
  %19 = getelementptr inbounds nuw i8, ptr %1, i64 56
  store i64 %18, ptr %19, align 8, !tbaa !34
  %20 = getelementptr inbounds nuw i8, ptr %0, i64 24
  %21 = load ptr, ptr %20, align 8, !tbaa !24
  %22 = getelementptr inbounds nuw i8, ptr %21, i64 8
  %23 = load i64, ptr %22, align 8, !tbaa !25
  %24 = load ptr, ptr %10, align 8, !tbaa !10
  %25 = getelementptr inbounds nuw i8, ptr %24, i64 148
  %26 = load i32, ptr %25, align 4, !tbaa !21
  %27 = zext i32 %26 to i64
  %28 = mul i64 %18, %27
  %29 = add i64 %28, %23
  %30 = getelementptr inbounds nuw i8, ptr %1, i64 32
  store i64 %29, ptr %30, align 8, !tbaa !35
  %31 = getelementptr inbounds nuw i8, ptr %1, i64 40
  store i64 %27, ptr %31, align 8, !tbaa !36
  %32 = getelementptr inbounds nuw i8, ptr %1, i64 48
  store i32 0, ptr %32, align 8, !tbaa !37
  br label %33

33:                                               ; preds = %9, %2
  ret i32 0
}